target datalayout = "e-m:e-p270:32:32-p271:32:32-p272:64:64-i64:64-i128:128-f80:128-n8:16:32:64-S128"
target triple = "x86_64-pc-linux-gnu"

%class.anon = type { i8 }
%class.anon.18 = type { i8 }
%class.anon.20 = type { i8 }
%class.anon.22 = type { i8 }
%struct.interaction_const_t = type { i32, i32, double, float, float, %struct.shift_consts_t, %struct.shift_consts_t, %struct.switch_consts_t, i8, float, i32, i32, float, float, float, float, i32, float, float, float, float, float, float, float, %"class.std::unique_ptr.2", %"class.std::unique_ptr.2", %"class.std::unique_ptr.10" }
%struct.shift_consts_t = type { float, float, float }
%struct.switch_consts_t = type { float, float, float }
%"class.std::unique_ptr.2" = type { %"struct.std::__uniq_ptr_data.3" }
%"struct.std::__uniq_ptr_data.3" = type { %"class.std::__uniq_ptr_impl.4" }
%"class.std::__uniq_ptr_impl.4" = type { %"class.std::tuple.5" }
%"class.std::tuple.5" = type { %"struct.std::_Tuple_impl.6" }
%"struct.std::_Tuple_impl.6" = type { %"struct.std::_Head_base.9" }
%"struct.std::_Head_base.9" = type { ptr }
%"class.std::unique_ptr.10" = type { %"struct.std::__uniq_ptr_data.11" }
%"struct.std::__uniq_ptr_data.11" = type { %"class.std::__uniq_ptr_impl.12" }
%"class.std::__uniq_ptr_impl.12" = type { %"class.std::tuple.13" }
%"class.std::tuple.13" = type { %"struct.std::_Tuple_impl.14" }
%"struct.std::_Tuple_impl.14" = type { %"struct.std::_Head_base.17" }
%"struct.std::_Head_base.17" = type { ptr }

@.str = private unnamed_addr constant [127 x i8] c"generated/home/dtcxzyw/WorkSpace/Projects/compilers/llvm-opt-benchmark/bench/gromacs/gromacs/src/gromacs/tables/forcetable.cpp\00", align 1
@debug = external global ptr, align 8
@.str.3 = private unnamed_addr constant [53 x i8] c"Ewald Coulomb quadratic spline table spacing: %f nm\0A\00", align 1
@.str.4 = private unnamed_addr constant [48 x i8] c"Ewald LJ quadratic spline table spacing: %f nm\0A\00", align 1
@.str.5 = private unnamed_addr constant [54 x i8] c"!generateCoulombTables || usingPmeOrEwald(ic.eeltype)\00", align 1
@.str.6 = private unnamed_addr constant [31 x i8] c"Can only use tables with Ewald\00", align 1
@"__PRETTY_FUNCTION__._ZZ25ewald_spline3_table_scaleRK19interaction_const_tbbENK3$_0clEv" = private unnamed_addr constant [123 x i8] c"auto ewald_spline3_table_scale(const interaction_const_t &, const bool, const bool)::(anonymous class)::operator()() const\00", align 1
@.str.7 = private unnamed_addr constant [45 x i8] c"!generateVdwTables || usingLJPme(ic.vdwtype)\00", align 1
@.str.8 = private unnamed_addr constant [20 x i8] c"ic.ewaldcoeff_q > 0\00", align 1
@.str.9 = private unnamed_addr constant [41 x i8] c"The Ewald coefficient should be positive\00", align 1
@.str.10 = private unnamed_addr constant [21 x i8] c"ic.ewaldcoeff_lj > 0\00", align 1

; Function Attrs: mustprogress nounwind uwtable
define linkonce_odr noundef nonnull align 8 dereferenceable(8) ptr @_ZSt3maxIdERKT_S2_S2_(ptr noundef nonnull align 8 dereferenceable(8) %0, ptr noundef nonnull align 8 dereferenceable(8) %1) #0 comdat {
  %3 = alloca ptr, align 8
  %4 = alloca ptr, align 8
  %5 = alloca ptr, align 8
  store ptr %0, ptr %4, align 8
  store ptr %1, ptr %5, align 8
  %6 = load ptr, ptr %4, align 8
  %7 = load double, ptr %6, align 8
  %8 = load ptr, ptr %5, align 8
  %9 = load double, ptr %8, align 8
  %10 = fcmp olt double %7, %9
  br i1 %10, label %11, label %13

11:                                               ; preds = %2
  %12 = load ptr, ptr %5, align 8
  store ptr %12, ptr %3, align 8
  br label %15

13:                                               ; preds = %2
  %14 = load ptr, ptr %4, align 8
  store ptr %14, ptr %3, align 8
  br label %15

15:                                               ; preds = %13, %11
  %16 = load ptr, ptr %3, align 8
  ret ptr %16
}

; Function Attrs: mustprogress nounwind uwtable
define internal noundef zeroext i1 @_ZL8usingPmeRK22CoulombInteractionType(ptr noundef nonnull align 4 dereferenceable(4) %0) #0 {
  %2 = alloca ptr, align 8
  store ptr %0, ptr %2, align 8
  %3 = load ptr, ptr %2, align 8
  %4 = load i32, ptr %3, align 4
  %5 = icmp eq i32 %4, 3
  br i1 %5, label %22, label %6

6:                                                ; preds = %1
  %7 = load ptr, ptr %2, align 8
  %8 = load i32, ptr %7, align 4
  %9 = icmp eq i32 %8, 14
  br i1 %9, label %22, label %10

10:                                               ; preds = %6
  %11 = load ptr, ptr %2, align 8
  %12 = load i32, ptr %11, align 4
  %13 = icmp eq i32 %12, 13
  br i1 %13, label %22, label %14

14:                                               ; preds = %10
  %15 = load ptr, ptr %2, align 8
  %16 = load i32, ptr %15, align 4
  %17 = icmp eq i32 %16, 15
  br i1 %17, label %22, label %18

18:                                               ; preds = %14
  %19 = load ptr, ptr %2, align 8
  %20 = load i32, ptr %19, align 4
  %21 = icmp eq i32 %20, 5
  br label %22

22:                                               ; preds = %18, %14, %10, %6, %1
  %23 = phi i1 [ true, %14 ], [ true, %10 ], [ true, %6 ], [ true, %1 ], [ %21, %18 ]
  ret i1 %23
}

; Function Attrs: mustprogress nounwind uwtable
define linkonce_odr noundef float @_ZN3gmx6squareIfEET_S1_(float noundef %0) #0 comdat {
  %2 = alloca float, align 4
  store float %0, ptr %2, align 4
  %3 = load float, ptr %2, align 4
  %4 = load float, ptr %2, align 4
  %5 = fmul float %3, %4
  ret float %5
}

; Function Attrs: mustprogress uwtable
define internal void @"_ZZ25ewald_spline3_table_scaleRK19interaction_const_tbbENK3$_3clEv"(ptr noundef nonnull align 1 dereferenceable(1) %0) #2 align 2 {
  %2 = alloca ptr, align 8
  store ptr %0, ptr %2, align 8
  call void @_ZN3gmx8internal13assertHandlerEPKcS2_S2_S2_i(ptr noundef @.str.10, ptr noundef @.str.9, ptr noundef @"__PRETTY_FUNCTION__._ZZ25ewald_spline3_table_scaleRK19interaction_const_tbbENK3$_0clEv", ptr noundef @.str, i32 noundef 361) #14
  unreachable
}

; Function Attrs: mustprogress nounwind uwtable
define linkonce_odr noundef nonnull align 4 dereferenceable(4) ptr @_ZSt3maxIfERKT_S2_S2_(ptr noundef nonnull align 4 dereferenceable(4) %0, ptr noundef nonnull align 4 dereferenceable(4) %1) #0 comdat {
  %3 = alloca ptr, align 8
  %4 = alloca ptr, align 8
  %5 = alloca ptr, align 8
  store ptr %0, ptr %4, align 8
  store ptr %1, ptr %5, align 8
  %6 = load ptr, ptr %4, align 8
  %7 = load float, ptr %6, align 4
  %8 = load ptr, ptr %5, align 8
  %9 = load float, ptr %8, align 4
  %10 = fcmp olt float %7, %9
  br i1 %10, label %11, label %13

11:                                               ; preds = %2
  %12 = load ptr, ptr %5, align 8
  store ptr %12, ptr %3, align 8
  br label %15

13:                                               ; preds = %2
  %14 = load ptr, ptr %4, align 8
  store ptr %14, ptr %3, align 8
  br label %15

15:                                               ; preds = %13, %11
  %16 = load ptr, ptr %3, align 8
  ret ptr %16
}

; Function Attrs: mustprogress uwtable
define internal noundef double @_ZL19spline3_table_scaleddd(double noundef %0, double noundef %1, double noundef %2) #2 {
  %4 = alloca double, align 8
  %5 = alloca double, align 8
  %6 = alloca double, align 8
  %7 = alloca double, align 8
  %8 = alloca double, align 8
  %9 = alloca double, align 8
  %10 = alloca double, align 8
  store double %0, ptr %4, align 8
  store double %1, ptr %5, align 8
  store double %2, ptr %6, align 8
  store double 0x3E80000000000000, ptr %7, align 8
  %11 = load double, ptr %4, align 8
  %12 = load double, ptr %7, align 8
  %13 = fmul double 2.400000e+01, %12
  %14 = load double, ptr %5, align 8
  %15 = fmul double %13, %14
  %16 = fdiv double %11, %15
  %17 = call double @sqrt(double noundef %16) #13
  %18 = load double, ptr %5, align 8
  %19 = fmul double %17, %18
  store double %19, ptr %8, align 8
  store double 0x3E80000000000000, ptr %10, align 8
  %20 = call noundef nonnull align 8 dereferenceable(8) ptr @_ZSt3maxIdERKT_S2_S2_(ptr noundef nonnull align 8 dereferenceable(8) %6, ptr noundef nonnull align 8 dereferenceable(8) %10)
  %21 = load double, ptr %20, align 8
  store double %21, ptr %6, align 8
  %22 = load double, ptr %4, align 8
  %23 = call double @sqrt(double noundef 3.000000e+00) #13
  %24 = fmul double 7.200000e+01, %23
  %25 = load double, ptr %6, align 8
  %26 = fmul double %24, %25
  %27 = fdiv double %22, %26
  %28 = call double @cbrt(double noundef %27) #16
  %29 = load double, ptr %5, align 8
  %30 = fmul double %28, %29
  store double %30, ptr %9, align 8
  %31 = call noundef nonnull align 8 dereferenceable(8) ptr @_ZSt3maxIdERKT_S2_S2_(ptr noundef nonnull align 8 dereferenceable(8) %8, ptr noundef nonnull align 8 dereferenceable(8) %9)
  %32 = load double, ptr %31, align 8
  ret double %32
}

; Function Attrs: mustprogress nounwind uwtable
define linkonce_odr noundef float @_ZSt4erfcf(float noundef %0) #0 comdat {
  %2 = alloca float, align 4
  store float %0, ptr %2, align 4
  %3 = load float, ptr %2, align 4
  %4 = call float @erfcf(float noundef %3) #13
  ret float %4
}

; Function Attrs: mustprogress uwtable
define internal void @"_ZZ25ewald_spline3_table_scaleRK19interaction_const_tbbENK3$_2clEv"(ptr noundef nonnull align 1 dereferenceable(1) %0) #2 align 2 {
  %2 = alloca ptr, align 8
  store ptr %0, ptr %2, align 8
  call void @_ZN3gmx8internal13assertHandlerEPKcS2_S2_S2_i(ptr noundef @.str.8, ptr noundef @.str.9, ptr noundef @"__PRETTY_FUNCTION__._ZZ25ewald_spline3_table_scaleRK19interaction_const_tbbENK3$_0clEv", ptr noundef @.str, i32 noundef 340) #14
  unreachable
}

; Function Attrs: mustprogress uwtable
define internal void @"_ZZ25ewald_spline3_table_scaleRK19interaction_const_tbbENK3$_1clEv"(ptr noundef nonnull align 1 dereferenceable(1) %0) #2 align 2 {
  %2 = alloca ptr, align 8
  store ptr %0, ptr %2, align 8
  call void @_ZN3gmx8internal13assertHandlerEPKcS2_S2_S2_i(ptr noundef @.str.7, ptr noundef @.str.6, ptr noundef @"__PRETTY_FUNCTION__._ZZ25ewald_spline3_table_scaleRK19interaction_const_tbbENK3$_0clEv", ptr noundef @.str, i32 noundef 334) #14
  unreachable
}

; Function Attrs: mustprogress nounwind uwtable
define internal noundef zeroext i1 @_ZL10usingLJPmeRK15VanDerWaalsType(ptr noundef nonnull align 4 dereferenceable(4) %0) #0 {
  %2 = alloca ptr, align 8
  store ptr %0, ptr %2, align 8
  %3 = load ptr, ptr %2, align 8
  %4 = load i32, ptr %3, align 4
  %5 = icmp eq i32 %4, 5
  ret i1 %5
}

; Function Attrs: mustprogress uwtable
define internal void @"_ZZ25ewald_spline3_table_scaleRK19interaction_const_tbbENK3$_0clEv"(ptr noundef nonnull align 1 dereferenceable(1) %0) #2 align 2 {
  %2 = alloca ptr, align 8
  store ptr %0, ptr %2, align 8
  call void @_ZN3gmx8internal13assertHandlerEPKcS2_S2_S2_i(ptr noundef @.str.5, ptr noundef @.str.6, ptr noundef @"__PRETTY_FUNCTION__._ZZ25ewald_spline3_table_scaleRK19interaction_const_tbbENK3$_0clEv", ptr noundef @.str, i32 noundef 332) #14
  unreachable
}

; Function Attrs: mustprogress uwtable
define internal noundef zeroext i1 @_ZL15usingPmeOrEwaldRK22CoulombInteractionType(ptr noundef nonnull align 4 dereferenceable(4) %0) #2 {
  %2 = alloca ptr, align 8
  store ptr %0, ptr %2, align 8
  %3 = load ptr, ptr %2, align 8
  %4 = call noundef zeroext i1 @_ZL8usingPmeRK22CoulombInteractionType(ptr noundef nonnull align 4 dereferenceable(4) %3)
  br i1 %4, label %9, label %5

5:                                                ; preds = %1
  %6 = load ptr, ptr %2, align 8
  %7 = load i32, ptr %6, align 4
  %8 = icmp eq i32 %7, 4
  br label %9

9:                                                ; preds = %5, %1
  %10 = phi i1 [ true, %1 ], [ %8, %5 ]
  ret i1 %10
}

; Function Attrs: mustprogress uwtable
define noundef float @_Z25ewald_spline3_table_scaleRK19interaction_const_tbb(ptr noundef nonnull align 8 dereferenceable(152) %0, i1 noundef zeroext %1, i1 noundef zeroext %2) #2 {
  %4 = alloca ptr, align 8
  %5 = alloca i8, align 1
  %6 = alloca i8, align 1
  %7 = alloca %class.anon, align 1
  %8 = alloca %class.anon.18, align 1
  %9 = alloca float, align 4
  %10 = alloca %class.anon.20, align 1
  %11 = alloca double, align 8
  %12 = alloca double, align 8
  %13 = alloca float, align 4
  %14 = alloca %class.anon.22, align 1
  %15 = alloca double, align 8
  %16 = alloca double, align 8
  %17 = alloca double, align 8
  %18 = alloca float, align 4
  store ptr %0, ptr %4, align 8
  %19 = zext i1 %1 to i8
  store i8 %19, ptr %5, align 1
  %20 = zext i1 %2 to i8
  store i8 %20, ptr %6, align 1
  %21 = load i8, ptr %5, align 1
  %22 = trunc i8 %21 to i1
  br i1 %22, label %23, label %27

23:                                               ; preds = %3
  %24 = load ptr, ptr %4, align 8
  %25 = getelementptr inbounds %struct.interaction_const_t, ptr %24, i32 0, i32 10
  %26 = call noundef zeroext i1 @_ZL15usingPmeOrEwaldRK22CoulombInteractionType(ptr noundef nonnull align 4 dereferenceable(4) %25)
  br i1 %26, label %27, label %28

27:                                               ; preds = %23, %3
  br label %29

28:                                               ; preds = %23
  call void @"_ZZ25ewald_spline3_table_scaleRK19interaction_const_tbbENK3$_0clEv"(ptr noundef nonnull align 1 dereferenceable(1) %7)
  br label %29

29:                                               ; preds = %28, %27
  %30 = load i8, ptr %6, align 1
  %31 = trunc i8 %30 to i1
  br i1 %31, label %32, label %36

32:                                               ; preds = %29
  %33 = load ptr, ptr %4, align 8
  %34 = getelementptr inbounds %struct.interaction_const_t, ptr %33, i32 0, i32 0
  %35 = call noundef zeroext i1 @_ZL10usingLJPmeRK15VanDerWaalsType(ptr noundef nonnull align 4 dereferenceable(4) %34)
  br i1 %35, label %36, label %37

36:                                               ; preds = %32, %29
  br label %38

37:                                               ; preds = %32
  call void @"_ZZ25ewald_spline3_table_scaleRK19interaction_const_tbbENK3$_1clEv"(ptr noundef nonnull align 1 dereferenceable(1) %8)
  br label %38

38:                                               ; preds = %37, %36
  store float 0.000000e+00, ptr %9, align 4
  %39 = load i8, ptr %5, align 1
  %40 = trunc i8 %39 to i1
  br i1 %40, label %41, label %78

41:                                               ; preds = %38
  %42 = load ptr, ptr %4, align 8
  %43 = getelementptr inbounds %struct.interaction_const_t, ptr %42, i32 0, i32 14
  %44 = load float, ptr %43, align 4
  %45 = fcmp ogt float %44, 0.000000e+00
  br i1 %45, label %46, label %47

46:                                               ; preds = %41
  br label %48

47:                                               ; preds = %41
  call void @"_ZZ25ewald_spline3_table_scaleRK19interaction_const_tbbENK3$_2clEv"(ptr noundef nonnull align 1 dereferenceable(1) %10)
  br label %48

48:                                               ; preds = %47, %46
  store double 1.052200e+00, ptr %11, align 8
  %49 = load ptr, ptr %4, align 8
  %50 = getelementptr inbounds %struct.interaction_const_t, ptr %49, i32 0, i32 14
  %51 = load float, ptr %50, align 4
  %52 = load ptr, ptr %4, align 8
  %53 = getelementptr inbounds %struct.interaction_const_t, ptr %52, i32 0, i32 12
  %54 = load float, ptr %53, align 4
  %55 = fmul float %51, %54
  %56 = call noundef float @_ZSt4erfcf(float noundef %55)
  %57 = fpext float %56 to double
  %58 = fmul double 1.000000e-01, %57
  store double %58, ptr %12, align 8
  %59 = load double, ptr %11, align 8
  %60 = load ptr, ptr %4, align 8
  %61 = getelementptr inbounds %struct.interaction_const_t, ptr %60, i32 0, i32 14
  %62 = load float, ptr %61, align 4
  %63 = fpext float %62 to double
  %64 = load double, ptr %12, align 8
  %65 = call noundef double @_ZL19spline3_table_scaleddd(double noundef %59, double noundef %63, double noundef %64)
  %66 = fptrunc double %65 to float
  store float %66, ptr %13, align 4
  %67 = load ptr, ptr @debug, align 8
  %68 = icmp ne ptr %67, null
  br i1 %68, label %69, label %75

69:                                               ; preds = %48
  %70 = load ptr, ptr @debug, align 8
  %71 = load float, ptr %13, align 4
  %72 = fdiv float 1.000000e+00, %71
  %73 = fpext float %72 to double
  %74 = call i32 (ptr, ptr, ...) @fprintf(ptr noundef %70, ptr noundef @.str.3, double noundef %73) #13
  br label %75

75:                                               ; preds = %69, %48
  %76 = call noundef nonnull align 4 dereferenceable(4) ptr @_ZSt3maxIfERKT_S2_S2_(ptr noundef nonnull align 4 dereferenceable(4) %9, ptr noundef nonnull align 4 dereferenceable(4) %13)
  %77 = load float, ptr %76, align 4
  store float %77, ptr %9, align 4
  br label %78

78:                                               ; preds = %75, %38
  %79 = load i8, ptr %6, align 1
  %80 = trunc i8 %79 to i1
  br i1 %80, label %81, label %129

81:                                               ; preds = %78
  %82 = load ptr, ptr %4, align 8
  %83 = getelementptr inbounds %struct.interaction_const_t, ptr %82, i32 0, i32 15
  %84 = load float, ptr %83, align 8
  %85 = fcmp ogt float %84, 0.000000e+00
  br i1 %85, label %86, label %87

86:                                               ; preds = %81
  br label %88

87:                                               ; preds = %81
  call void @"_ZZ25ewald_spline3_table_scaleRK19interaction_const_tbbENK3$_3clEv"(ptr noundef nonnull align 1 dereferenceable(1) %14)
  br label %88

88:                                               ; preds = %87, %86
  store double 4.288800e-01, ptr %15, align 8
  %89 = load ptr, ptr %4, align 8
  %90 = getelementptr inbounds %struct.interaction_const_t, ptr %89, i32 0, i32 15
  %91 = load float, ptr %90, align 8
  %92 = load ptr, ptr %4, align 8
  %93 = getelementptr inbounds %struct.interaction_const_t, ptr %92, i32 0, i32 3
  %94 = load float, ptr %93, align 8
  %95 = fmul float %91, %94
  %96 = call noundef float @_ZN3gmx6squareIfEET_S1_(float noundef %95)
  %97 = fpext float %96 to double
  store double %97, ptr %16, align 8
  %98 = load double, ptr %16, align 8
  %99 = fneg double %98
  %100 = call double @exp(double noundef %99) #13
  %101 = fmul double 1.000000e-01, %100
  %102 = load double, ptr %16, align 8
  %103 = fadd double 1.000000e+00, %102
  %104 = load double, ptr %16, align 8
  %105 = load double, ptr %16, align 8
  %106 = fmul double %104, %105
  %107 = fdiv double %106, 2.000000e+00
  %108 = fadd double %103, %107
  %109 = fmul double %101, %108
  store double %109, ptr %17, align 8
  %110 = load double, ptr %15, align 8
  %111 = load ptr, ptr %4, align 8
  %112 = getelementptr inbounds %struct.interaction_const_t, ptr %111, i32 0, i32 15
  %113 = load float, ptr %112, align 8
  %114 = fpext float %113 to double
  %115 = load double, ptr %17, align 8
  %116 = call noundef double @_ZL19spline3_table_scaleddd(double noundef %110, double noundef %114, double noundef %115)
  %117 = fptrunc double %116 to float
  store float %117, ptr %18, align 4
  %118 = load ptr, ptr @debug, align 8
  %119 = icmp ne ptr %118, null
  br i1 %119, label %120, label %126

120:                                              ; preds = %88
  %121 = load ptr, ptr @debug, align 8
  %122 = load float, ptr %18, align 4
  %123 = fdiv float 1.000000e+00, %122
  %124 = fpext float %123 to double
  %125 = call i32 (ptr, ptr, ...) @fprintf(ptr noundef %121, ptr noundef @.str.4, double noundef %124) #13
  br label %126

126:                                              ; preds = %120, %88
  %127 = call noundef nonnull align 4 dereferenceable(4) ptr @_ZSt3maxIfERKT_S2_S2_(ptr noundef nonnull align 4 dereferenceable(4) %9, ptr noundef nonnull align 4 dereferenceable(4) %18)
  %128 = load float, ptr %127, align 4
  store float %128, ptr %9, align 4
  br label %129

129:                                              ; preds = %126, %78
  %130 = load float, ptr %9, align 4
  ret float %130
}