; Function Attrs: mustprogress uwtable
define noundef float @_Z25ewald_spline3_table_scaleRK19interaction_const_tbb(ptr nocapture noundef nonnull readonly align 8 dereferenceable(152) %0, i1 noundef zeroext %1, i1 noundef zeroext %2) local_unnamed_addr #3 {
  br i1 %1, label %4, label %_ZL15usingPmeOrEwaldRK22CoulombInteractionType.exit.thread.thread

4:                                                ; preds = %3
  %5 = getelementptr inbounds i8, ptr %0, i64 68
  %.val = load i32, ptr %5, align 4
  switch i32 %.val, label %6 [
    i32 3, label %_ZL15usingPmeOrEwaldRK22CoulombInteractionType.exit.thread
    i32 14, label %_ZL15usingPmeOrEwaldRK22CoulombInteractionType.exit.thread
    i32 13, label %_ZL15usingPmeOrEwaldRK22CoulombInteractionType.exit.thread
    i32 15, label %_ZL15usingPmeOrEwaldRK22CoulombInteractionType.exit.thread
    i32 5, label %_ZL15usingPmeOrEwaldRK22CoulombInteractionType.exit.thread
    i32 4, label %_ZL15usingPmeOrEwaldRK22CoulombInteractionType.exit.thread
  ]

6:                                                ; preds = %4
  tail call void @_ZN3gmx8internal13assertHandlerEPKcS2_S2_S2_i(ptr noundef nonnull @.str.5, ptr noundef nonnull @.str.6, ptr noundef nonnull @"__PRETTY_FUNCTION__._ZZ25ewald_spline3_table_scaleRK19interaction_const_tbbENK3$_0clEv", ptr noundef nonnull @.str, i32 noundef 332) #23
  unreachable

_ZL15usingPmeOrEwaldRK22CoulombInteractionType.exit.thread: ; preds = %4, %4, %4, %4, %4, %4
  %.val23 = load i32, ptr %0, align 8
  %7 = icmp ne i32 %.val23, 5
  %or.cond.not = select i1 %2, i1 %7, i1 false
  br i1 %or.cond.not, label %9, label %10

_ZL15usingPmeOrEwaldRK22CoulombInteractionType.exit.thread.thread: ; preds = %3
  %.val2335 = load i32, ptr %0, align 8
  %8 = icmp ne i32 %.val2335, 5
  %or.cond.not36 = select i1 %2, i1 %8, i1 false
  br i1 %or.cond.not36, label %9, label %.thread

9:                                                ; preds = %_ZL15usingPmeOrEwaldRK22CoulombInteractionType.exit.thread.thread, %_ZL15usingPmeOrEwaldRK22CoulombInteractionType.exit.thread
  tail call void @_ZN3gmx8internal13assertHandlerEPKcS2_S2_S2_i(ptr noundef nonnull @.str.7, ptr noundef nonnull @.str.6, ptr noundef nonnull @"__PRETTY_FUNCTION__._ZZ25ewald_spline3_table_scaleRK19interaction_const_tbbENK3$_0clEv", ptr noundef nonnull @.str, i32 noundef 334) #23
  unreachable

10:                                               ; preds = %_ZL15usingPmeOrEwaldRK22CoulombInteractionType.exit.thread
  br i1 %1, label %11, label %.thread

11:                                               ; preds = %10
  %12 = getelementptr inbounds i8, ptr %0, i64 84
  %13 = load float, ptr %12, align 4
  %14 = fcmp ogt float %13, 0.000000e+00
  br i1 %14, label %16, label %15

15:                                               ; preds = %11
  tail call void @_ZN3gmx8internal13assertHandlerEPKcS2_S2_S2_i(ptr noundef nonnull @.str.8, ptr noundef nonnull @.str.9, ptr noundef nonnull @"__PRETTY_FUNCTION__._ZZ25ewald_spline3_table_scaleRK19interaction_const_tbbENK3$_0clEv", ptr noundef nonnull @.str, i32 noundef 340) #23
  unreachable

16:                                               ; preds = %11
  %17 = getelementptr inbounds i8, ptr %0, i64 76
  %18 = load float, ptr %17, align 4
  %19 = fmul float %13, %18
  %20 = tail call noundef float @erfcf(float noundef %19) #22
  %21 = fpext float %20 to double
  %22 = fmul double %21, 1.000000e-01
  %23 = load float, ptr %12, align 4
  %24 = fpext float %23 to double
  %25 = fmul double %24, 0x3EC8000000000000
  %26 = fdiv double 1.052200e+00, %25
  %27 = tail call double @sqrt(double noundef %26) #22
  %28 = fmul double %27, %24
  %29 = fcmp olt double %22, 0x3E80000000000000
  %.sroa.speculated.i = select i1 %29, double 0x3E80000000000000, double %22
  %30 = fmul double %.sroa.speculated.i, 0x405F2D4A4563563F
  %31 = fdiv double 1.052200e+00, %30
  %32 = tail call double @cbrt(double noundef %31) #25
  %33 = fmul double %32, %24
  %34 = fcmp olt double %28, %33
  %.sroa.speculated8.i = select i1 %34, double %33, double %28
  %35 = fptrunc double %.sroa.speculated8.i to float
  %36 = load ptr, ptr @debug, align 8
  %.not = icmp eq ptr %36, null
  br i1 %.not, label %41, label %37

37:                                               ; preds = %16
  %38 = fdiv float 1.000000e+00, %35
  %39 = fpext float %38 to double
  %40 = tail call i32 (ptr, ptr, ...) @fprintf(ptr noundef nonnull %36, ptr noundef nonnull @.str.3, double noundef %39) #22
  br label %41

41:                                               ; preds = %37, %16
  %42 = fcmp ogt float %35, 0.000000e+00
  %.sroa.speculated28 = select i1 %42, float %35, float 0.000000e+00
  br label %.thread

.thread:                                          ; preds = %_ZL15usingPmeOrEwaldRK22CoulombInteractionType.exit.thread.thread, %41, %10
  %.0 = phi float [ %.sroa.speculated28, %41 ], [ 0.000000e+00, %10 ], [ 0.000000e+00, %_ZL15usingPmeOrEwaldRK22CoulombInteractionType.exit.thread.thread ]
  br i1 %2, label %43, label %82

43:                                               ; preds = %.thread
  %44 = getelementptr inbounds i8, ptr %0, i64 88
  %45 = load float, ptr %44, align 8
  %46 = fcmp ogt float %45, 0.000000e+00
  br i1 %46, label %48, label %47

47:                                               ; preds = %43
  tail call void @_ZN3gmx8internal13assertHandlerEPKcS2_S2_S2_i(ptr noundef nonnull @.str.10, ptr noundef nonnull @.str.9, ptr noundef nonnull @"__PRETTY_FUNCTION__._ZZ25ewald_spline3_table_scaleRK19interaction_const_tbbENK3$_0clEv", ptr noundef nonnull @.str, i32 noundef 361) #23
  unreachable

48:                                               ; preds = %43
  %49 = getelementptr inbounds i8, ptr %0, i64 16
  %50 = load float, ptr %49, align 8
  %51 = fmul float %45, %50
  %52 = fmul float %51, %51
  %53 = fpext float %52 to double
  %54 = fneg double %53
  %55 = tail call double @exp(double noundef %54) #22
  %56 = fmul double %55, 1.000000e-01
  %57 = fadd double %53, 1.000000e+00
  %58 = fmul double %53, %53
  %59 = fmul double %58, 5.000000e-01
  %60 = fadd double %57, %59
  %61 = fmul double %56, %60
  %62 = load float, ptr %44, align 8
  %63 = fpext float %62 to double
  %64 = fmul double %63, 0x3EC8000000000000
  %65 = fdiv double 4.288800e-01, %64
  %66 = tail call double @sqrt(double noundef %65) #22
  %67 = fmul double %66, %63
  %68 = fcmp olt double %61, 0x3E80000000000000
  %.sroa.speculated.i24 = select i1 %68, double 0x3E80000000000000, double %61
  %69 = fmul double %.sroa.speculated.i24, 0x405F2D4A4563563F
  %70 = fdiv double 4.288800e-01, %69
  %71 = tail call double @cbrt(double noundef %70) #25
  %72 = fmul double %71, %63
  %73 = fcmp olt double %67, %72
  %.sroa.speculated8.i25 = select i1 %73, double %72, double %67
  %74 = fptrunc double %.sroa.speculated8.i25 to float
  %75 = load ptr, ptr @debug, align 8
  %.not22 = icmp eq ptr %75, null
  br i1 %.not22, label %80, label %76

76:                                               ; preds = %48
  %77 = fdiv float 1.000000e+00, %74
  %78 = fpext float %77 to double
  %79 = tail call i32 (ptr, ptr, ...) @fprintf(ptr noundef nonnull %75, ptr noundef nonnull @.str.4, double noundef %78) #22
  br label %80

80:                                               ; preds = %76, %48
  %81 = fcmp olt float %.0, %74
  %.sroa.speculated = select i1 %81, float %74, float %.0
  br label %82

82:                                               ; preds = %80, %.thread
  %.1 = phi float [ %.sroa.speculated, %80 ], [ %.0, %.thread ]
  ret float %.1
}